target datalayout = "e-m:e-p270:32:32-p271:32:32-p272:64:64-i64:64-i128:128-f80:128-n8:16:32:64-S128"
target triple = "x86_64-pc-linux-gnu"

%"class.llvm::StringRef" = type { ptr, i64 }
%"class.std::vector.121" = type { %"struct.std::_Vector_base.122" }
%"struct.std::_Vector_base.122" = type { %"struct.std::_Vector_base<unsigned long, std::allocator<unsigned long>>::_Vector_impl" }
%"struct.std::_Vector_base<unsigned long, std::allocator<unsigned long>>::_Vector_impl" = type { %"struct.std::_Vector_base<unsigned long, std::allocator<unsigned long>>::_Vector_impl_data" }
%"struct.std::_Vector_base<unsigned long, std::allocator<unsigned long>>::_Vector_impl_data" = type { ptr, ptr, ptr }
%"struct.llvm::NamedInstrProfRecord" = type { %"struct.llvm::InstrProfRecord", %"class.llvm::StringRef", i64 }
%"struct.llvm::InstrProfRecord" = type { %"class.std::vector.121", %"class.std::vector.131", %"class.std::unique_ptr.136" }
%"class.std::vector.131" = type { %"struct.std::_Vector_base.132" }
%"struct.std::_Vector_base.132" = type { %"struct.std::_Vector_base<unsigned char, std::allocator<unsigned char>>::_Vector_impl" }
%"struct.std::_Vector_base<unsigned char, std::allocator<unsigned char>>::_Vector_impl" = type { %"struct.std::_Vector_base<unsigned char, std::allocator<unsigned char>>::_Vector_impl_data" }
%"struct.std::_Vector_base<unsigned char, std::allocator<unsigned char>>::_Vector_impl_data" = type { ptr, ptr, ptr }
%"class.std::unique_ptr.136" = type { %"struct.std::__uniq_ptr_data.137" }
%"struct.std::__uniq_ptr_data.137" = type { %"class.std::__uniq_ptr_impl.138" }
%"class.std::__uniq_ptr_impl.138" = type { %"class.std::tuple.139" }
%"class.std::tuple.139" = type { %"struct.std::_Tuple_impl.140" }
%"struct.std::_Tuple_impl.140" = type { %"struct.std::_Head_base.143" }
%"struct.std::_Head_base.143" = type { ptr }
%"class.llvm::InstrProfIterator" = type { ptr, %"struct.llvm::NamedInstrProfRecord" }
%"struct.llvm::CountSumOrPercent" = type { i64, double, %"struct.std::array.325" }
%"struct.std::array.325" = type { [3 x double] }

; Function Attrs: mustprogress nounwind uwtable
define linkonce_odr hidden void @_ZNSt10_Head_baseILm1ESt14default_deleteISt5arrayISt6vectorIN4llvm24InstrProfValueSiteRecordESaIS4_EELm3EEELb1EEC2Ev(ptr noundef nonnull align 1 dereferenceable(1) %0) unnamed_addr #0 comdat align 2 {
  %2 = alloca ptr, align 8
  store ptr %0, ptr %2, align 8
  ret void
}

; Function Attrs: mustprogress nounwind uwtable
define linkonce_odr hidden void @_ZNSt10_Head_baseILm0EPSt5arrayISt6vectorIN4llvm24InstrProfValueSiteRecordESaIS3_EELm3EELb0EEC2Ev(ptr noundef nonnull align 8 dereferenceable(8) %0) unnamed_addr #0 comdat align 2 {
  %2 = alloca ptr, align 8
  store ptr %0, ptr %2, align 8
  %3 = load ptr, ptr %2, align 8
  %4 = getelementptr inbounds nuw %"struct.std::_Head_base.143", ptr %3, i32 0, i32 0
  store ptr null, ptr %4, align 8
  ret void
}

; Function Attrs: mustprogress nounwind uwtable
define linkonce_odr hidden void @_ZNSt11_Tuple_implILm1EJSt14default_deleteISt5arrayISt6vectorIN4llvm24InstrProfValueSiteRecordESaIS4_EELm3EEEEEC2Ev(ptr noundef nonnull align 1 dereferenceable(1) %0) unnamed_addr #0 comdat align 2 {
  %2 = alloca ptr, align 8
  store ptr %0, ptr %2, align 8
  %3 = load ptr, ptr %2, align 8
  call void @_ZNSt10_Head_baseILm1ESt14default_deleteISt5arrayISt6vectorIN4llvm24InstrProfValueSiteRecordESaIS4_EELm3EEELb1EEC2Ev(ptr noundef nonnull align 1 dereferenceable(1) %3)
  ret void
}

; Function Attrs: mustprogress nounwind uwtable
define linkonce_odr hidden void @_ZNSt11_Tuple_implILm0EJPSt5arrayISt6vectorIN4llvm24InstrProfValueSiteRecordESaIS3_EELm3EESt14default_deleteIS6_EEEC2Ev(ptr noundef nonnull align 8 dereferenceable(8) %0) unnamed_addr #0 comdat align 2 {
  %2 = alloca ptr, align 8
  store ptr %0, ptr %2, align 8
  %3 = load ptr, ptr %2, align 8
  call void @_ZNSt11_Tuple_implILm1EJSt14default_deleteISt5arrayISt6vectorIN4llvm24InstrProfValueSiteRecordESaIS4_EELm3EEEEEC2Ev(ptr noundef nonnull align 1 dereferenceable(1) %3)
  call void @_ZNSt10_Head_baseILm0EPSt5arrayISt6vectorIN4llvm24InstrProfValueSiteRecordESaIS3_EELm3EELb0EEC2Ev(ptr noundef nonnull align 8 dereferenceable(8) %3)
  ret void
}

; Function Attrs: mustprogress nounwind uwtable
define linkonce_odr hidden void @_ZNSt15__new_allocatorIhEC2Ev(ptr noundef nonnull align 1 dereferenceable(1) %0) unnamed_addr #0 comdat align 2 {
  %2 = alloca ptr, align 8
  store ptr %0, ptr %2, align 8
  ret void
}

; Function Attrs: mustprogress nounwind uwtable
define linkonce_odr hidden void @_ZNSt15__new_allocatorImEC2Ev(ptr noundef nonnull align 1 dereferenceable(1) %0) unnamed_addr #0 comdat align 2 {
  %2 = alloca ptr, align 8
  store ptr %0, ptr %2, align 8
  ret void
}

; Function Attrs: mustprogress nounwind uwtable
define linkonce_odr hidden void @_ZNSt5tupleIJPSt5arrayISt6vectorIN4llvm24InstrProfValueSiteRecordESaIS3_EELm3EESt14default_deleteIS6_EEEC2ILb1ETnNSt9enable_ifIXclsr17_TupleConstraintsIXT_ES7_S9_EE37__is_implicitly_default_constructibleEEbE4typeELb1EEEv(ptr noundef nonnull align 8 dereferenceable(8) %0) unnamed_addr #0 comdat align 2 {
  %2 = alloca ptr, align 8
  store ptr %0, ptr %2, align 8
  %3 = load ptr, ptr %2, align 8
  call void @_ZNSt11_Tuple_implILm0EJPSt5arrayISt6vectorIN4llvm24InstrProfValueSiteRecordESaIS3_EELm3EESt14default_deleteIS6_EEEC2Ev(ptr noundef nonnull align 8 dereferenceable(8) %3)
  ret void
}

; Function Attrs: mustprogress nounwind uwtable
define linkonce_odr hidden void @_ZNSt12_Vector_baseIhSaIhEE17_Vector_impl_dataC2Ev(ptr noundef nonnull align 8 dereferenceable(24) %0) unnamed_addr #0 comdat align 2 {
  %2 = alloca ptr, align 8
  store ptr %0, ptr %2, align 8
  %3 = load ptr, ptr %2, align 8
  %4 = getelementptr inbounds nuw %"struct.std::_Vector_base<unsigned char, std::allocator<unsigned char>>::_Vector_impl_data", ptr %3, i32 0, i32 0
  store ptr null, ptr %4, align 8
  %5 = getelementptr inbounds nuw %"struct.std::_Vector_base<unsigned char, std::allocator<unsigned char>>::_Vector_impl_data", ptr %3, i32 0, i32 1
  store ptr null, ptr %5, align 8
  %6 = getelementptr inbounds nuw %"struct.std::_Vector_base<unsigned char, std::allocator<unsigned char>>::_Vector_impl_data", ptr %3, i32 0, i32 2
  store ptr null, ptr %6, align 8
  ret void
}

; Function Attrs: mustprogress nounwind uwtable
define linkonce_odr hidden void @_ZNSaIhEC2Ev(ptr noundef nonnull align 1 dereferenceable(1) %0) unnamed_addr #0 comdat align 2 {
  %2 = alloca ptr, align 8
  store ptr %0, ptr %2, align 8
  %3 = load ptr, ptr %2, align 8
  call void @_ZNSt15__new_allocatorIhEC2Ev(ptr noundef nonnull align 1 dereferenceable(1) %3) #14
  ret void
}

; Function Attrs: mustprogress nounwind uwtable
define linkonce_odr hidden void @_ZNSt12_Vector_baseImSaImEE17_Vector_impl_dataC2Ev(ptr noundef nonnull align 8 dereferenceable(24) %0) unnamed_addr #0 comdat align 2 {
  %2 = alloca ptr, align 8
  store ptr %0, ptr %2, align 8
  %3 = load ptr, ptr %2, align 8
  %4 = getelementptr inbounds nuw %"struct.std::_Vector_base<unsigned long, std::allocator<unsigned long>>::_Vector_impl_data", ptr %3, i32 0, i32 0
  store ptr null, ptr %4, align 8
  %5 = getelementptr inbounds nuw %"struct.std::_Vector_base<unsigned long, std::allocator<unsigned long>>::_Vector_impl_data", ptr %3, i32 0, i32 1
  store ptr null, ptr %5, align 8
  %6 = getelementptr inbounds nuw %"struct.std::_Vector_base<unsigned long, std::allocator<unsigned long>>::_Vector_impl_data", ptr %3, i32 0, i32 2
  store ptr null, ptr %6, align 8
  ret void
}

; Function Attrs: mustprogress nounwind uwtable
define linkonce_odr hidden void @_ZNSaImEC2Ev(ptr noundef nonnull align 1 dereferenceable(1) %0) unnamed_addr #0 comdat align 2 {
  %2 = alloca ptr, align 8
  store ptr %0, ptr %2, align 8
  %3 = load ptr, ptr %2, align 8
  call void @_ZNSt15__new_allocatorImEC2Ev(ptr noundef nonnull align 1 dereferenceable(1) %3) #14
  ret void
}

; Function Attrs: mustprogress nounwind uwtable
define linkonce_odr hidden void @_ZNSt15__uniq_ptr_implISt5arrayISt6vectorIN4llvm24InstrProfValueSiteRecordESaIS3_EELm3EESt14default_deleteIS6_EEC2Ev(ptr noundef nonnull align 8 dereferenceable(8) %0) unnamed_addr #0 comdat align 2 {
  %2 = alloca ptr, align 8
  store ptr %0, ptr %2, align 8
  %3 = load ptr, ptr %2, align 8
  %4 = getelementptr inbounds nuw %"class.std::__uniq_ptr_impl.138", ptr %3, i32 0, i32 0
  call void @_ZNSt5tupleIJPSt5arrayISt6vectorIN4llvm24InstrProfValueSiteRecordESaIS3_EELm3EESt14default_deleteIS6_EEEC2ILb1ETnNSt9enable_ifIXclsr17_TupleConstraintsIXT_ES7_S9_EE37__is_implicitly_default_constructibleEEbE4typeELb1EEEv(ptr noundef nonnull align 8 dereferenceable(8) %4) #14
  ret void
}

; Function Attrs: mustprogress nounwind uwtable
define linkonce_odr hidden void @_ZNSt12_Vector_baseIhSaIhEE12_Vector_implC2Ev(ptr noundef nonnull align 8 dereferenceable(24) %0) unnamed_addr #0 comdat align 2 {
  %2 = alloca ptr, align 8
  store ptr %0, ptr %2, align 8
  %3 = load ptr, ptr %2, align 8
  call void @_ZNSaIhEC2Ev(ptr noundef nonnull align 1 dereferenceable(1) %3) #14
  call void @_ZNSt12_Vector_baseIhSaIhEE17_Vector_impl_dataC2Ev(ptr noundef nonnull align 8 dereferenceable(24) %3) #14
  ret void
}

; Function Attrs: mustprogress nounwind uwtable
define linkonce_odr hidden void @_ZNSt12_Vector_baseImSaImEE12_Vector_implC2Ev(ptr noundef nonnull align 8 dereferenceable(24) %0) unnamed_addr #0 comdat align 2 {
  %2 = alloca ptr, align 8
  store ptr %0, ptr %2, align 8
  %3 = load ptr, ptr %2, align 8
  call void @_ZNSaImEC2Ev(ptr noundef nonnull align 1 dereferenceable(1) %3) #14
  call void @_ZNSt12_Vector_baseImSaImEE17_Vector_impl_dataC2Ev(ptr noundef nonnull align 8 dereferenceable(24) %3) #14
  ret void
}

; Function Attrs: mustprogress nounwind uwtable
define linkonce_odr hidden void @_ZNSt15__uniq_ptr_dataISt5arrayISt6vectorIN4llvm24InstrProfValueSiteRecordESaIS3_EELm3EESt14default_deleteIS6_ELb1ELb1EEC2Ev(ptr noundef nonnull align 8 dereferenceable(8) %0) unnamed_addr #0 comdat align 2 {
  %2 = alloca ptr, align 8
  store ptr %0, ptr %2, align 8
  %3 = load ptr, ptr %2, align 8
  call void @_ZNSt15__uniq_ptr_implISt5arrayISt6vectorIN4llvm24InstrProfValueSiteRecordESaIS3_EELm3EESt14default_deleteIS6_EEC2Ev(ptr noundef nonnull align 8 dereferenceable(8) %3) #14
  ret void
}

; Function Attrs: mustprogress nounwind uwtable
define linkonce_odr hidden void @_ZNSt12_Vector_baseIhSaIhEEC2Ev(ptr noundef nonnull align 8 dereferenceable(24) %0) unnamed_addr #0 comdat align 2 {
  %2 = alloca ptr, align 8
  store ptr %0, ptr %2, align 8
  %3 = load ptr, ptr %2, align 8
  %4 = getelementptr inbounds nuw %"struct.std::_Vector_base.132", ptr %3, i32 0, i32 0
  call void @_ZNSt12_Vector_baseIhSaIhEE12_Vector_implC2Ev(ptr noundef nonnull align 8 dereferenceable(24) %4) #14
  ret void
}

; Function Attrs: mustprogress nounwind uwtable
define linkonce_odr hidden void @_ZNSt12_Vector_baseImSaImEEC2Ev(ptr noundef nonnull align 8 dereferenceable(24) %0) unnamed_addr #0 comdat align 2 {
  %2 = alloca ptr, align 8
  store ptr %0, ptr %2, align 8
  %3 = load ptr, ptr %2, align 8
  %4 = getelementptr inbounds nuw %"struct.std::_Vector_base.122", ptr %3, i32 0, i32 0
  call void @_ZNSt12_Vector_baseImSaImEE12_Vector_implC2Ev(ptr noundef nonnull align 8 dereferenceable(24) %4) #14
  ret void
}

; Function Attrs: mustprogress nounwind uwtable
define linkonce_odr hidden void @_ZNSt10unique_ptrISt5arrayISt6vectorIN4llvm24InstrProfValueSiteRecordESaIS3_EELm3EESt14default_deleteIS6_EEC2IS8_vEEv(ptr noundef nonnull align 8 dereferenceable(8) %0) unnamed_addr #0 comdat align 2 {
  %2 = alloca ptr, align 8
  store ptr %0, ptr %2, align 8
  %3 = load ptr, ptr %2, align 8
  %4 = getelementptr inbounds nuw %"class.std::unique_ptr.136", ptr %3, i32 0, i32 0
  call void @llvm.memset.p0.i64(ptr align 8 %4, i8 0, i64 8, i1 false)
  call void @_ZNSt15__uniq_ptr_dataISt5arrayISt6vectorIN4llvm24InstrProfValueSiteRecordESaIS3_EELm3EESt14default_deleteIS6_ELb1ELb1EEC2Ev(ptr noundef nonnull align 8 dereferenceable(8) %4) #14
  ret void
}

; Function Attrs: mustprogress nounwind uwtable
define linkonce_odr hidden void @_ZNSt6vectorIhSaIhEEC2Ev(ptr noundef nonnull align 8 dereferenceable(24) %0) unnamed_addr #0 comdat align 2 {
  %2 = alloca ptr, align 8
  store ptr %0, ptr %2, align 8
  %3 = load ptr, ptr %2, align 8
  call void @_ZNSt12_Vector_baseIhSaIhEEC2Ev(ptr noundef nonnull align 8 dereferenceable(24) %3) #14
  ret void
}

; Function Attrs: mustprogress nounwind uwtable
define linkonce_odr hidden void @_ZNSt6vectorImSaImEEC2Ev(ptr noundef nonnull align 8 dereferenceable(24) %0) unnamed_addr #0 comdat align 2 {
  %2 = alloca ptr, align 8
  store ptr %0, ptr %2, align 8
  %3 = load ptr, ptr %2, align 8
  call void @_ZNSt12_Vector_baseImSaImEEC2Ev(ptr noundef nonnull align 8 dereferenceable(24) %3) #14
  ret void
}

; Function Attrs: mustprogress nounwind uwtable
define linkonce_odr hidden void @_ZN4llvm9StringRefC2Ev(ptr noundef nonnull align 8 dereferenceable(16) %0) unnamed_addr #0 comdat align 2 {
  %2 = alloca ptr, align 8
  store ptr %0, ptr %2, align 8
  %3 = load ptr, ptr %2, align 8
  %4 = getelementptr inbounds nuw %"class.llvm::StringRef", ptr %3, i32 0, i32 0
  store ptr null, ptr %4, align 8
  %5 = getelementptr inbounds nuw %"class.llvm::StringRef", ptr %3, i32 0, i32 1
  store i64 0, ptr %5, align 8
  ret void
}

; Function Attrs: mustprogress nounwind uwtable
define linkonce_odr hidden void @_ZN4llvm15InstrProfRecordC2Ev(ptr noundef nonnull align 8 dereferenceable(56) %0) unnamed_addr #0 comdat align 2 {
  %2 = alloca ptr, align 8
  store ptr %0, ptr %2, align 8
  %3 = load ptr, ptr %2, align 8
  %4 = getelementptr inbounds nuw %"struct.llvm::InstrProfRecord", ptr %3, i32 0, i32 0
  call void @_ZNSt6vectorImSaImEEC2Ev(ptr noundef nonnull align 8 dereferenceable(24) %4) #14
  %5 = getelementptr inbounds nuw %"struct.llvm::InstrProfRecord", ptr %3, i32 0, i32 1
  call void @_ZNSt6vectorIhSaIhEEC2Ev(ptr noundef nonnull align 8 dereferenceable(24) %5) #14
  %6 = getelementptr inbounds nuw %"struct.llvm::InstrProfRecord", ptr %3, i32 0, i32 2
  call void @_ZNSt10unique_ptrISt5arrayISt6vectorIN4llvm24InstrProfValueSiteRecordESaIS3_EELm3EESt14default_deleteIS6_EEC2IS8_vEEv(ptr noundef nonnull align 8 dereferenceable(8) %6) #14
  ret void
}

; Function Attrs: mustprogress nounwind uwtable
define linkonce_odr hidden void @_ZN4llvm20NamedInstrProfRecordC2Ev(ptr noundef nonnull align 8 dereferenceable(80) %0) unnamed_addr #0 comdat align 2 {
  %2 = alloca ptr, align 8
  store ptr %0, ptr %2, align 8
  %3 = load ptr, ptr %2, align 8
  call void @_ZN4llvm15InstrProfRecordC2Ev(ptr noundef nonnull align 8 dereferenceable(56) %3) #14
  %4 = getelementptr inbounds nuw %"struct.llvm::NamedInstrProfRecord", ptr %3, i32 0, i32 1
  call void @_ZN4llvm9StringRefC2Ev(ptr noundef nonnull align 8 dereferenceable(16) %4) #14
  ret void
}

; Function Attrs: mustprogress nounwind uwtable
define linkonce_odr hidden void @_ZN4llvm20NamedInstrProfRecordD2Ev(ptr noundef nonnull align 8 dereferenceable(80) %0) unnamed_addr #0 comdat align 2 {
  %2 = alloca ptr, align 8
  store ptr %0, ptr %2, align 8
  %3 = load ptr, ptr %2, align 8
  call void @_ZN4llvm15InstrProfRecordD2Ev(ptr noundef nonnull align 8 dereferenceable(56) %3) #14
  ret void
}

; Function Attrs: mustprogress nounwind uwtable
define linkonce_odr hidden void @_ZN4llvm17InstrProfIteratorINS_20NamedInstrProfRecordENS_15InstrProfReaderEEC2Ev(ptr noundef nonnull align 8 dereferenceable(88) %0) unnamed_addr #0 comdat align 2 {
  %2 = alloca ptr, align 8
  store ptr %0, ptr %2, align 8
  %3 = load ptr, ptr %2, align 8
  %4 = getelementptr inbounds nuw %"class.llvm::InstrProfIterator", ptr %3, i32 0, i32 0
  store ptr null, ptr %4, align 8
  %5 = getelementptr inbounds nuw %"class.llvm::InstrProfIterator", ptr %3, i32 0, i32 1
  call void @_ZN4llvm20NamedInstrProfRecordC2Ev(ptr noundef nonnull align 8 dereferenceable(80) %5) #14
  ret void
}

; Function Attrs: mustprogress nounwind uwtable
define linkonce_odr hidden void @_ZN4llvm17InstrProfIteratorINS_20NamedInstrProfRecordENS_15InstrProfReaderEEC2EPS2_(ptr noundef nonnull align 8 dereferenceable(88) %0, ptr noundef %1) unnamed_addr #0 comdat align 2 {
  %3 = alloca ptr, align 8
  %4 = alloca ptr, align 8
  store ptr %0, ptr %3, align 8
  store ptr %1, ptr %4, align 8
  %5 = load ptr, ptr %3, align 8
  %6 = getelementptr inbounds nuw %"class.llvm::InstrProfIterator", ptr %5, i32 0, i32 0
  %7 = load ptr, ptr %4, align 8
  store ptr %7, ptr %6, align 8
  %8 = getelementptr inbounds nuw %"class.llvm::InstrProfIterator", ptr %5, i32 0, i32 1
  call void @_ZN4llvm20NamedInstrProfRecordC2Ev(ptr noundef nonnull align 8 dereferenceable(80) %8) #14
  call void @_ZN4llvm17InstrProfIteratorINS_20NamedInstrProfRecordENS_15InstrProfReaderEE9incrementEv(ptr noundef nonnull align 8 dereferenceable(88) %5)
  ret void
}

; Function Attrs: mustprogress nounwind uwtable
define linkonce_odr hidden noundef nonnull align 8 dereferenceable(88) ptr @_ZN4llvm17InstrProfIteratorINS_20NamedInstrProfRecordENS_15InstrProfReaderEEppEv(ptr noundef nonnull align 8 dereferenceable(88) %0) #0 comdat align 2 {
  %2 = alloca ptr, align 8
  store ptr %0, ptr %2, align 8
  %3 = load ptr, ptr %2, align 8
  call void @_ZN4llvm17InstrProfIteratorINS_20NamedInstrProfRecordENS_15InstrProfReaderEE9incrementEv(ptr noundef nonnull align 8 dereferenceable(88) %3)
  ret ptr %3
}

; Function Attrs: mustprogress nounwind uwtable
define linkonce_odr hidden noundef zeroext i1 @_ZN4llvm20NamedInstrProfRecord15hasCSFlagInHashEm(i64 noundef %0) #0 comdat align 2 {
  %2 = alloca i64, align 8
  store i64 %0, ptr %2, align 8
  %3 = load i64, ptr %2, align 8
  %4 = lshr i64 %3, 60
  %5 = and i64 %4, 1
  %6 = icmp ne i64 %5, 0
  ret i1 %6
}

; Function Attrs: mustprogress nounwind uwtable
define linkonce_odr hidden noundef nonnull align 8 dereferenceable(80) ptr @_ZN4llvm17InstrProfIteratorINS_20NamedInstrProfRecordENS_15InstrProfReaderEEdeEv(ptr noundef nonnull align 8 dereferenceable(88) %0) #0 comdat align 2 {
  %2 = alloca ptr, align 8
  store ptr %0, ptr %2, align 8
  %3 = load ptr, ptr %2, align 8
  %4 = getelementptr inbounds nuw %"class.llvm::InstrProfIterator", ptr %3, i32 0, i32 1
  ret ptr %4
}

; Function Attrs: mustprogress nounwind uwtable
define linkonce_odr hidden void @_ZN4llvm17InstrProfIteratorINS_20NamedInstrProfRecordENS_15InstrProfReaderEED2Ev(ptr noundef nonnull align 8 dereferenceable(88) %0) unnamed_addr #0 comdat align 2 {
  %2 = alloca ptr, align 8
  store ptr %0, ptr %2, align 8
  %3 = load ptr, ptr %2, align 8
  %4 = getelementptr inbounds nuw %"class.llvm::InstrProfIterator", ptr %3, i32 0, i32 1
  call void @_ZN4llvm20NamedInstrProfRecordD2Ev(ptr noundef nonnull align 8 dereferenceable(80) %4) #14
  ret void
}

; Function Attrs: mustprogress nounwind uwtable
define linkonce_odr hidden noundef zeroext i1 @_ZNK4llvm17InstrProfIteratorINS_20NamedInstrProfRecordENS_15InstrProfReaderEEneERKS3_(ptr noundef nonnull align 8 dereferenceable(88) %0, ptr noundef nonnull align 8 dereferenceable(88) %1) #0 comdat align 2 {
  %3 = alloca ptr, align 8
  %4 = alloca ptr, align 8
  store ptr %0, ptr %3, align 8
  store ptr %1, ptr %4, align 8
  %5 = load ptr, ptr %3, align 8
  %6 = getelementptr inbounds nuw %"class.llvm::InstrProfIterator", ptr %5, i32 0, i32 0
  %7 = load ptr, ptr %6, align 8
  %8 = load ptr, ptr %4, align 8
  %9 = getelementptr inbounds nuw %"class.llvm::InstrProfIterator", ptr %8, i32 0, i32 0
  %10 = load ptr, ptr %9, align 8
  %11 = icmp ne ptr %7, %10
  ret i1 %11
}

; Function Attrs: mustprogress nounwind uwtable
define linkonce_odr hidden void @_ZN4llvm15InstrProfReader3endEv(ptr dead_on_unwind noalias writable sret(%"class.llvm::InstrProfIterator") align 8 %0, ptr noundef nonnull align 8 dereferenceable(112) %1) #0 comdat align 2 {
  %3 = alloca ptr, align 8
  %4 = alloca ptr, align 8
  store ptr %0, ptr %3, align 8
  store ptr %1, ptr %4, align 8
  call void @llvm.memset.p0.i64(ptr align 8 %0, i8 0, i64 88, i1 false)
  call void @_ZN4llvm17InstrProfIteratorINS_20NamedInstrProfRecordENS_15InstrProfReaderEEC2Ev(ptr noundef nonnull align 8 dereferenceable(88) %0) #14
  ret void
}

; Function Attrs: mustprogress nounwind uwtable
define linkonce_odr hidden void @_ZN4llvm15InstrProfReader5beginEv(ptr dead_on_unwind noalias writable sret(%"class.llvm::InstrProfIterator") align 8 %0, ptr noundef nonnull align 8 dereferenceable(112) %1) #0 comdat align 2 {
  %3 = alloca ptr, align 8
  %4 = alloca ptr, align 8
  store ptr %0, ptr %3, align 8
  store ptr %1, ptr %4, align 8
  %5 = load ptr, ptr %4, align 8
  call void @_ZN4llvm17InstrProfIteratorINS_20NamedInstrProfRecordENS_15InstrProfReaderEEC2EPS2_(ptr noundef nonnull align 8 dereferenceable(88) %0, ptr noundef %5)
  ret void
}

; Function Attrs: mustprogress nounwind uwtable
define dso_local void @_ZN4llvm15InstrProfReader16accumulateCountsERNS_17CountSumOrPercentEb(ptr noundef nonnull align 8 dereferenceable(112) %0, ptr noundef nonnull align 8 dereferenceable(40) %1, i1 noundef zeroext %2) #0 align 2 {
  %4 = alloca ptr, align 8
  %5 = alloca ptr, align 8
  %6 = alloca i8, align 1
  %7 = alloca i64, align 8
  %8 = alloca ptr, align 8
  %9 = alloca %"class.llvm::InstrProfIterator", align 8
  %10 = alloca %"class.llvm::InstrProfIterator", align 8
  %11 = alloca ptr, align 8
  %12 = alloca i8, align 1
  store ptr %0, ptr %4, align 8
  store ptr %1, ptr %5, align 8
  %13 = zext i1 %2 to i8
  store i8 %13, ptr %6, align 1
  %14 = load ptr, ptr %4, align 8
  store i64 0, ptr %7, align 8
  store ptr %14, ptr %8, align 8
  %15 = load ptr, ptr %8, align 8
  call void @_ZN4llvm15InstrProfReader5beginEv(ptr dead_on_unwind writable sret(%"class.llvm::InstrProfIterator") align 8 %9, ptr noundef nonnull align 8 dereferenceable(112) %15)
  %16 = load ptr, ptr %8, align 8
  call void @_ZN4llvm15InstrProfReader3endEv(ptr dead_on_unwind writable sret(%"class.llvm::InstrProfIterator") align 8 %10, ptr noundef nonnull align 8 dereferenceable(112) %16)
  br label %17

17:                                               ; preds = %46, %3
  %18 = call noundef zeroext i1 @_ZNK4llvm17InstrProfIteratorINS_20NamedInstrProfRecordENS_15InstrProfReaderEEneERKS3_(ptr noundef nonnull align 8 dereferenceable(88) %9, ptr noundef nonnull align 8 dereferenceable(88) %10)
  br i1 %18, label %20, label %19

19:                                               ; preds = %17
  call void @_ZN4llvm17InstrProfIteratorINS_20NamedInstrProfRecordENS_15InstrProfReaderEED2Ev(ptr noundef nonnull align 8 dereferenceable(88) %10) #14
  call void @_ZN4llvm17InstrProfIteratorINS_20NamedInstrProfRecordENS_15InstrProfReaderEED2Ev(ptr noundef nonnull align 8 dereferenceable(88) %9) #14
  br label %48

20:                                               ; preds = %17
  %21 = call noundef nonnull align 8 dereferenceable(80) ptr @_ZN4llvm17InstrProfIteratorINS_20NamedInstrProfRecordENS_15InstrProfReaderEEdeEv(ptr noundef nonnull align 8 dereferenceable(88) %9)
  store ptr %21, ptr %11, align 8
  %22 = load ptr, ptr %14, align 8
  %23 = getelementptr inbounds ptr, ptr %22, i64 7
  %24 = load ptr, ptr %23, align 8
  %25 = call noundef zeroext i1 %24(ptr noundef nonnull align 8 dereferenceable(112) %14)
  br i1 %25, label %26, label %41

26:                                               ; preds = %20
  %27 = load ptr, ptr %11, align 8
  %28 = getelementptr inbounds nuw %"struct.llvm::NamedInstrProfRecord", ptr %27, i32 0, i32 2
  %29 = load i64, ptr %28, align 8
  %30 = call noundef zeroext i1 @_ZN4llvm20NamedInstrProfRecord15hasCSFlagInHashEm(i64 noundef %29)
  %31 = zext i1 %30 to i8
  store i8 %31, ptr %12, align 1
  %32 = load i8, ptr %12, align 1
  %33 = trunc i8 %32 to i1
  %34 = zext i1 %33 to i32
  %35 = load i8, ptr %6, align 1
  %36 = trunc i8 %35 to i1
  %37 = zext i1 %36 to i32
  %38 = icmp ne i32 %34, %37
  br i1 %38, label %39, label %40

39:                                               ; preds = %26
  br label %46

40:                                               ; preds = %26
  br label %41

41:                                               ; preds = %40, %20
  %42 = load ptr, ptr %11, align 8
  %43 = load ptr, ptr %5, align 8
  call void @_ZNK4llvm15InstrProfRecord16accumulateCountsERNS_17CountSumOrPercentE(ptr noundef nonnull align 8 dereferenceable(56) %42, ptr noundef nonnull align 8 dereferenceable(40) %43)
  %44 = load i64, ptr %7, align 8
  %45 = add i64 %44, 1
  store i64 %45, ptr %7, align 8
  br label %46

46:                                               ; preds = %41, %39
  %47 = call noundef nonnull align 8 dereferenceable(88) ptr @_ZN4llvm17InstrProfIteratorINS_20NamedInstrProfRecordENS_15InstrProfReaderEEppEv(ptr noundef nonnull align 8 dereferenceable(88) %9)
  br label %17

48:                                               ; preds = %19
  %49 = load i64, ptr %7, align 8
  %50 = load ptr, ptr %5, align 8
  %51 = getelementptr inbounds nuw %"struct.llvm::CountSumOrPercent", ptr %50, i32 0, i32 0
  store i64 %49, ptr %51, align 8
  ret void
}