; Function Attrs: mustprogress nounwind uwtable
define dso_local void @_ZN4llvm15InstrProfReader16accumulateCountsERNS_17CountSumOrPercentEb(ptr noundef nonnull align 8 dereferenceable(112) %0, ptr noundef nonnull align 8 dereferenceable(40) %1, i1 noundef zeroext %2) local_unnamed_addr #0 align 2 {
  %4 = alloca %"class.llvm::InstrProfIterator", align 8
  %5 = alloca %"class.llvm::InstrProfIterator", align 8
  store ptr %0, ptr %4, align 8, !alias.scope !1488
  %6 = getelementptr inbounds nuw i8, ptr %4, i64 8
  call void @llvm.memset.p0.i64(ptr noundef nonnull align 8 dereferenceable(72) %6, i8 0, i64 72, i1 false), !alias.scope !1488
  call void @_ZN4llvm17InstrProfIteratorINS_20NamedInstrProfRecordENS_15InstrProfReaderEE9incrementEv(ptr noundef nonnull align 8 dereferenceable(88) %4)
  call void @llvm.memset.p0.i64(ptr noundef nonnull align 8 dereferenceable(88) %5, i8 0, i64 88, i1 false), !alias.scope !1491
  %7 = load ptr, ptr %4, align 8
  %.not10 = icmp eq ptr %7, null
  br i1 %.not10, label %._crit_edge, label %.lr.ph

.lr.ph:                                           ; preds = %3
  %8 = getelementptr inbounds i8, ptr %4, i64 80
  br label %10

._crit_edge:                                      ; preds = %22, %3
  %.0.lcssa = phi i64 [ 0, %3 ], [ %.1, %22 ]
  %9 = getelementptr inbounds nuw i8, ptr %5, i64 8
  call void @_ZN4llvm15InstrProfRecordD2Ev(ptr noundef nonnull align 8 dereferenceable(56) %9) #21
  call void @_ZN4llvm15InstrProfRecordD2Ev(ptr noundef nonnull align 8 dereferenceable(56) %6) #21
  store i64 %.0.lcssa, ptr %1, align 8
  ret void

10:                                               ; preds = %.lr.ph, %22
  %.011 = phi i64 [ 0, %.lr.ph ], [ %.1, %22 ]
  %11 = load ptr, ptr %0, align 8
  %12 = getelementptr inbounds i8, ptr %11, i64 56
  %13 = load ptr, ptr %12, align 8
  %14 = call noundef zeroext i1 %13(ptr noundef nonnull align 8 dereferenceable(112) %0) #21
  br i1 %14, label %15, label %20

15:                                               ; preds = %10
  %16 = load i64, ptr %8, align 8
  %17 = and i64 %16, 1152921504606846976
  %18 = icmp ne i64 %17, 0
  %19 = xor i1 %2, %18
  br i1 %19, label %22, label %20

20:                                               ; preds = %15, %10
  call void @_ZNK4llvm15InstrProfRecord16accumulateCountsERNS_17CountSumOrPercentE(ptr noundef nonnull align 8 dereferenceable(56) %6, ptr noundef nonnull align 8 dereferenceable(40) %1) #21
  %21 = add i64 %.011, 1
  br label %22

22:                                               ; preds = %15, %20
  %.1 = phi i64 [ %.011, %15 ], [ %21, %20 ]
  call void @_ZN4llvm17InstrProfIteratorINS_20NamedInstrProfRecordENS_15InstrProfReaderEE9incrementEv(ptr noundef nonnull align 8 dereferenceable(88) %4)
  %23 = load ptr, ptr %4, align 8
  %.not = icmp eq ptr %23, null
  br i1 %.not, label %._crit_edge, label %10
}